target datalayout = "e-m:e-p270:32:32-p271:32:32-p272:64:64-i64:64-i128:128-f80:128-n8:16:32:64-S128"
target triple = "x86_64-pc-linux-gnu"

%struct._e_guid_t = type { i32, i16, i16, [8 x i8] }
%struct._packet_info = type { ptr, ptr, i32, i32, %struct.nstime_t, %struct.nstime_t, %struct.nstime_t, i32, ptr, ptr, ptr, ptr, %struct._address, %struct._address, %struct._address, %struct._address, %struct._address, %struct._address, i32, ptr, i32, %struct.anon, i32, i32, i32, i32, ptr, i32, ptr, ptr, i16, i16, i32, i32, i16, i32, i32, ptr, ptr, ptr, i8, i8, i16, i16, i16, i32, i16, i16, ptr, ptr, ptr, ptr, ptr, i32 }
%struct.nstime_t = type { i64, i32 }
%struct._address = type { i32, i32, ptr, ptr }
%struct.anon = type { i8, [3 x i8] }
%struct._dcerpc_info = type { ptr, i32, i64, i8, i32, i32, i32, i32, i32, i32, i32, i32, i32, i32, ptr, ptr, ptr }
%struct._dcerpc_call_value = type { %struct._e_guid_t, i16, %struct._e_guid_t, i16, i32, %struct.nstime_t, i32, i32, ptr, ptr, ptr, i32 }
%struct._proto_node = type { ptr, ptr, ptr, ptr, ptr, ptr }
%struct.field_info = type { ptr, i32, i32, i32, i32, i32, i32, ptr, ptr, ptr, i32, i32 }

@uuid_null = internal constant %struct._e_guid_t zeroinitializer, align 4
@proto_dcom = internal global i32 0, align 4
@.str.119 = private unnamed_addr constant [15 x i8] c"DCOM, ORPCThis\00", align 1
@ett_dcom_this = internal global i32 0, align 4
@hf_dcom_this_flags = internal global i32 0, align 4
@hf_dcom_this_res = internal global i32 0, align 4
@hf_dcom_this_cid = internal global i32 0, align 4
@.str.120 = private unnamed_addr constant [27 x i8] c", V%u.%u, Causality ID: %s\00", align 1
@hf_dcom_ipid = hidden global i32 0, align 4
@.str.121 = private unnamed_addr constant [21 x i8] c"Object UUID/IPID: %s\00", align 1
@hf_dcom_version_major = internal global i32 0, align 4
@hf_dcom_version_minor = internal global i32 0, align 4

; Function Attrs: nounwind uwtable
define internal void @proto_item_set_generated(ptr noundef %0) #0 {
  %2 = alloca ptr, align 8
  store ptr %0, ptr %2, align 8
  %3 = load ptr, ptr %2, align 8
  %4 = icmp ne ptr %3, null
  br i1 %4, label %5, label %24

5:                                                ; preds = %1
  br label %6

6:                                                ; preds = %5
  %7 = load ptr, ptr %2, align 8
  %8 = getelementptr inbounds %struct._proto_node, ptr %7, i32 0, i32 4
  %9 = load ptr, ptr %8, align 8
  %10 = icmp ne ptr %9, null
  br i1 %10, label %11, label %22

11:                                               ; preds = %6
  %12 = load ptr, ptr %2, align 8
  %13 = getelementptr inbounds %struct._proto_node, ptr %12, i32 0, i32 4
  %14 = load ptr, ptr %13, align 8
  %15 = getelementptr inbounds %struct.field_info, ptr %14, i32 0, i32 6
  %16 = load i32, ptr %15, align 4
  %17 = or i32 %16, 2
  %18 = load ptr, ptr %2, align 8
  %19 = getelementptr inbounds %struct._proto_node, ptr %18, i32 0, i32 4
  %20 = load ptr, ptr %19, align 8
  %21 = getelementptr inbounds %struct.field_info, ptr %20, i32 0, i32 6
  store i32 %17, ptr %21, align 4
  br label %22

22:                                               ; preds = %11, %6
  br label %23

23:                                               ; preds = %22
  br label %24

24:                                               ; preds = %23, %1
  ret void
}

; Function Attrs: nounwind uwtable
define hidden i32 @dissect_dcom_COMVERSION(ptr noundef %0, i32 noundef %1, ptr noundef %2, ptr noundef %3, ptr noundef %4, ptr noundef %5, ptr noundef %6, ptr noundef %7) #0 {
  %9 = alloca ptr, align 8
  %10 = alloca i32, align 4
  %11 = alloca ptr, align 8
  %12 = alloca ptr, align 8
  %13 = alloca ptr, align 8
  %14 = alloca ptr, align 8
  %15 = alloca ptr, align 8
  %16 = alloca ptr, align 8
  store ptr %0, ptr %9, align 8
  store i32 %1, ptr %10, align 4
  store ptr %2, ptr %11, align 8
  store ptr %3, ptr %12, align 8
  store ptr %4, ptr %13, align 8
  store ptr %5, ptr %14, align 8
  store ptr %6, ptr %15, align 8
  store ptr %7, ptr %16, align 8
  %17 = load ptr, ptr %9, align 8
  %18 = load i32, ptr %10, align 4
  %19 = load ptr, ptr %11, align 8
  %20 = load ptr, ptr %12, align 8
  %21 = load ptr, ptr %13, align 8
  %22 = load ptr, ptr %14, align 8
  %23 = load i32, ptr @hf_dcom_version_major, align 4
  %24 = load ptr, ptr %15, align 8
  %25 = call i32 @dissect_ndr_uint16(ptr noundef %17, i32 noundef %18, ptr noundef %19, ptr noundef %20, ptr noundef %21, ptr noundef %22, i32 noundef %23, ptr noundef %24)
  store i32 %25, ptr %10, align 4
  %26 = load ptr, ptr %9, align 8
  %27 = load i32, ptr %10, align 4
  %28 = load ptr, ptr %11, align 8
  %29 = load ptr, ptr %12, align 8
  %30 = load ptr, ptr %13, align 8
  %31 = load ptr, ptr %14, align 8
  %32 = load i32, ptr @hf_dcom_version_minor, align 4
  %33 = load ptr, ptr %16, align 8
  %34 = call i32 @dissect_ndr_uint16(ptr noundef %26, i32 noundef %27, ptr noundef %28, ptr noundef %29, ptr noundef %30, ptr noundef %31, i32 noundef %32, ptr noundef %33)
  store i32 %34, ptr %10, align 4
  %35 = load i32, ptr %10, align 4
  ret i32 %35
}

; Function Attrs: nounwind uwtable
define i32 @dissect_dcom_this(ptr noundef %0, i32 noundef %1, ptr noundef %2, ptr noundef %3, ptr noundef %4, ptr noundef %5) #0 {
  %7 = alloca ptr, align 8
  %8 = alloca i32, align 4
  %9 = alloca ptr, align 8
  %10 = alloca ptr, align 8
  %11 = alloca ptr, align 8
  %12 = alloca ptr, align 8
  %13 = alloca i16, align 2
  %14 = alloca i16, align 2
  %15 = alloca i32, align 4
  %16 = alloca i32, align 4
  %17 = alloca %struct._e_guid_t, align 4
  %18 = alloca ptr, align 8
  %19 = alloca ptr, align 8
  %20 = alloca i32, align 4
  %21 = alloca ptr, align 8
  store ptr %0, ptr %7, align 8
  store i32 %1, ptr %8, align 4
  store ptr %2, ptr %9, align 8
  store ptr %3, ptr %10, align 8
  store ptr %4, ptr %11, align 8
  store ptr %5, ptr %12, align 8
  %22 = load ptr, ptr %10, align 8
  %23 = load i32, ptr @proto_dcom, align 4
  %24 = load ptr, ptr %7, align 8
  %25 = load i32, ptr %8, align 4
  %26 = call ptr (ptr, i32, ptr, i32, i32, ptr, ...) @proto_tree_add_protocol_format(ptr noundef %22, i32 noundef %23, ptr noundef %24, i32 noundef %25, i32 noundef 0, ptr noundef @.str.119)
  store ptr %26, ptr %18, align 8
  %27 = load ptr, ptr %18, align 8
  %28 = load i32, ptr @ett_dcom_this, align 4
  %29 = call ptr @proto_item_add_subtree(ptr noundef %27, i32 noundef %28)
  store ptr %29, ptr %19, align 8
  %30 = load ptr, ptr %7, align 8
  %31 = load i32, ptr %8, align 4
  %32 = load ptr, ptr %9, align 8
  %33 = load ptr, ptr %19, align 8
  %34 = load ptr, ptr %11, align 8
  %35 = load ptr, ptr %12, align 8
  %36 = call i32 @dissect_dcom_COMVERSION(ptr noundef %30, i32 noundef %31, ptr noundef %32, ptr noundef %33, ptr noundef %34, ptr noundef %35, ptr noundef %13, ptr noundef %14)
  store i32 %36, ptr %8, align 4
  %37 = load i32, ptr %8, align 4
  %38 = sub i32 %37, 4
  store i32 %38, ptr %20, align 4
  %39 = load ptr, ptr %7, align 8
  %40 = load i32, ptr %8, align 4
  %41 = load ptr, ptr %9, align 8
  %42 = load ptr, ptr %19, align 8
  %43 = load ptr, ptr %11, align 8
  %44 = load ptr, ptr %12, align 8
  %45 = load i32, ptr @hf_dcom_this_flags, align 4
  %46 = call i32 @dissect_ndr_uint32(ptr noundef %39, i32 noundef %40, ptr noundef %41, ptr noundef %42, ptr noundef %43, ptr noundef %44, i32 noundef %45, ptr noundef %15)
  store i32 %46, ptr %8, align 4
  %47 = load ptr, ptr %7, align 8
  %48 = load i32, ptr %8, align 4
  %49 = load ptr, ptr %9, align 8
  %50 = load ptr, ptr %19, align 8
  %51 = load ptr, ptr %11, align 8
  %52 = load ptr, ptr %12, align 8
  %53 = load i32, ptr @hf_dcom_this_res, align 4
  %54 = call i32 @dissect_ndr_uint32(ptr noundef %47, i32 noundef %48, ptr noundef %49, ptr noundef %50, ptr noundef %51, ptr noundef %52, i32 noundef %53, ptr noundef %16)
  store i32 %54, ptr %8, align 4
  %55 = load ptr, ptr %7, align 8
  %56 = load i32, ptr %8, align 4
  %57 = load ptr, ptr %9, align 8
  %58 = load ptr, ptr %19, align 8
  %59 = load ptr, ptr %11, align 8
  %60 = load ptr, ptr %12, align 8
  %61 = load i32, ptr @hf_dcom_this_cid, align 4
  %62 = call i32 @dissect_dcom_UUID(ptr noundef %55, i32 noundef %56, ptr noundef %57, ptr noundef %58, ptr noundef %59, ptr noundef %60, i32 noundef %61, ptr noundef %17)
  store i32 %62, ptr %8, align 4
  %63 = load ptr, ptr %7, align 8
  %64 = load i32, ptr %8, align 4
  %65 = load ptr, ptr %9, align 8
  %66 = load ptr, ptr %19, align 8
  %67 = load ptr, ptr %11, align 8
  %68 = load ptr, ptr %12, align 8
  %69 = call i32 @dissect_dcom_extent(ptr noundef %63, i32 noundef %64, ptr noundef %65, ptr noundef %66, ptr noundef %67, ptr noundef %68)
  store i32 %69, ptr %8, align 4
  %70 = load ptr, ptr %18, align 8
  %71 = load i16, ptr %13, align 2
  %72 = zext i16 %71 to i32
  %73 = load i16, ptr %14, align 2
  %74 = zext i16 %73 to i32
  %75 = load ptr, ptr %9, align 8
  %76 = getelementptr inbounds %struct._packet_info, ptr %75, i32 0, i32 50
  %77 = load ptr, ptr %76, align 8
  %78 = call ptr @guids_resolve_guid_to_str(ptr noundef %17, ptr noundef %77)
  call void (ptr, ptr, ...) @proto_item_append_text(ptr noundef %70, ptr noundef @.str.120, i32 noundef %72, i32 noundef %74, ptr noundef %78)
  %79 = load ptr, ptr %18, align 8
  %80 = load i32, ptr %8, align 4
  %81 = load i32, ptr %20, align 4
  %82 = sub i32 %80, %81
  call void @proto_item_set_len(ptr noundef %79, i32 noundef %82)
  %83 = load ptr, ptr %11, align 8
  %84 = getelementptr inbounds %struct._dcerpc_info, ptr %83, i32 0, i32 14
  %85 = load ptr, ptr %84, align 8
  %86 = getelementptr inbounds %struct._dcerpc_call_value, ptr %85, i32 0, i32 2
  %87 = call i32 @memcmp(ptr noundef %86, ptr noundef @uuid_null, i64 noundef 16) #8
  %88 = icmp ne i32 %87, 0
  br i1 %88, label %89, label %108

89:                                               ; preds = %6
  %90 = load ptr, ptr %10, align 8
  %91 = load i32, ptr @hf_dcom_ipid, align 4
  %92 = load ptr, ptr %7, align 8
  %93 = load i32, ptr %8, align 4
  %94 = load ptr, ptr %11, align 8
  %95 = getelementptr inbounds %struct._dcerpc_info, ptr %94, i32 0, i32 14
  %96 = load ptr, ptr %95, align 8
  %97 = getelementptr inbounds %struct._dcerpc_call_value, ptr %96, i32 0, i32 2
  %98 = load ptr, ptr %11, align 8
  %99 = getelementptr inbounds %struct._dcerpc_info, ptr %98, i32 0, i32 14
  %100 = load ptr, ptr %99, align 8
  %101 = getelementptr inbounds %struct._dcerpc_call_value, ptr %100, i32 0, i32 2
  %102 = load ptr, ptr %9, align 8
  %103 = getelementptr inbounds %struct._packet_info, ptr %102, i32 0, i32 50
  %104 = load ptr, ptr %103, align 8
  %105 = call ptr @guids_resolve_guid_to_str(ptr noundef %101, ptr noundef %104)
  %106 = call ptr (ptr, i32, ptr, i32, i32, ptr, ptr, ...) @proto_tree_add_guid_format(ptr noundef %90, i32 noundef %91, ptr noundef %92, i32 noundef %93, i32 noundef 0, ptr noundef %97, ptr noundef @.str.121, ptr noundef %105)
  store ptr %106, ptr %21, align 8
  %107 = load ptr, ptr %21, align 8
  call void @proto_item_set_generated(ptr noundef %107)
  br label %108

108:                                              ; preds = %89, %6
  %109 = load i32, ptr %8, align 4
  ret i32 %109
}