; Function Attrs: nounwind uwtable
define i32 @dissect_dcom_this(ptr noundef %0, i32 noundef %1, ptr noundef %2, ptr noundef %3, ptr noundef %4, ptr noundef %5) local_unnamed_addr #1 {
  %7 = alloca i16, align 2
  %8 = alloca i16, align 2
  %9 = alloca i32, align 4
  %10 = alloca i32, align 4
  %11 = alloca %struct._e_guid_t, align 4
  %12 = load i32, ptr @proto_dcom, align 4
  %13 = tail call ptr (ptr, i32, ptr, i32, i32, ptr, ...) @proto_tree_add_protocol_format(ptr noundef %3, i32 noundef %12, ptr noundef %0, i32 noundef %1, i32 noundef 0, ptr noundef nonnull @.str.119) #11
  %14 = load i32, ptr @ett_dcom_this, align 4
  %15 = tail call ptr @proto_item_add_subtree(ptr noundef %13, i32 noundef %14) #11
  %16 = load i32, ptr @hf_dcom_version_major, align 4
  %17 = call i32 @dissect_ndr_uint16(ptr noundef %0, i32 noundef %1, ptr noundef %2, ptr noundef %15, ptr noundef %4, ptr noundef %5, i32 noundef %16, ptr noundef nonnull %7) #11
  %18 = load i32, ptr @hf_dcom_version_minor, align 4
  %19 = call i32 @dissect_ndr_uint16(ptr noundef %0, i32 noundef %17, ptr noundef %2, ptr noundef %15, ptr noundef %4, ptr noundef %5, i32 noundef %18, ptr noundef nonnull %8) #11
  %20 = load i32, ptr @hf_dcom_this_flags, align 4
  %21 = call i32 @dissect_ndr_uint32(ptr noundef %0, i32 noundef %19, ptr noundef %2, ptr noundef %15, ptr noundef %4, ptr noundef %5, i32 noundef %20, ptr noundef nonnull %9) #11
  %22 = load i32, ptr @hf_dcom_this_res, align 4
  %23 = call i32 @dissect_ndr_uint32(ptr noundef %0, i32 noundef %21, ptr noundef %2, ptr noundef %15, ptr noundef %4, ptr noundef %5, i32 noundef %22, ptr noundef nonnull %10) #11
  %24 = load i32, ptr @hf_dcom_this_cid, align 4
  %25 = call i32 @dissect_dcom_UUID(ptr noundef %0, i32 noundef %23, ptr noundef %2, ptr noundef %15, ptr noundef %4, ptr noundef %5, i32 noundef %24, ptr noundef nonnull %11)
  %26 = call fastcc i32 @dissect_dcom_extent(ptr noundef %0, i32 noundef %25, ptr noundef %2, ptr noundef %15, ptr noundef %4, ptr noundef %5)
  %27 = load i16, ptr %7, align 2
  %28 = zext i16 %27 to i32
  %29 = load i16, ptr %8, align 2
  %30 = zext i16 %29 to i32
  %31 = getelementptr inbounds nuw i8, ptr %2, i64 408
  %32 = load ptr, ptr %31, align 8
  %33 = call ptr @guids_resolve_guid_to_str(ptr noundef nonnull %11, ptr noundef %32) #11
  call void (ptr, ptr, ...) @proto_item_append_text(ptr noundef %13, ptr noundef nonnull @.str.120, i32 noundef %28, i32 noundef %30, ptr noundef %33) #11
  %reass.sub = sub i32 %26, %19
  %34 = add i32 %reass.sub, 4
  call void @proto_item_set_len(ptr noundef %13, i32 noundef %34) #11
  %35 = getelementptr inbounds nuw i8, ptr %4, i64 72
  %36 = load ptr, ptr %35, align 8
  %37 = getelementptr inbounds nuw i8, ptr %36, i64 20
  %bcmp = call i32 @bcmp(ptr noundef nonnull dereferenceable(16) %37, ptr noundef nonnull dereferenceable(16) @uuid_null, i64 16)
  %.not = icmp eq i32 %bcmp, 0
  br i1 %.not, label %proto_item_set_generated.exit, label %38

38:                                               ; preds = %6
  %39 = load i32, ptr @hf_dcom_ipid, align 4
  %40 = load ptr, ptr %31, align 8
  %41 = call ptr @guids_resolve_guid_to_str(ptr noundef nonnull %37, ptr noundef %40) #11
  %42 = call ptr (ptr, i32, ptr, i32, i32, ptr, ptr, ...) @proto_tree_add_guid_format(ptr noundef %3, i32 noundef %39, ptr noundef %0, i32 noundef %26, i32 noundef 0, ptr noundef nonnull %37, ptr noundef nonnull @.str.121, ptr noundef %41) #11
  %.not.i = icmp eq ptr %42, null
  br i1 %.not.i, label %proto_item_set_generated.exit, label %43

43:                                               ; preds = %38
  %44 = getelementptr inbounds nuw i8, ptr %42, i64 32
  %45 = load ptr, ptr %44, align 8
  %.not5.i = icmp eq ptr %45, null
  br i1 %.not5.i, label %proto_item_set_generated.exit, label %46

46:                                               ; preds = %43
  %47 = getelementptr inbounds nuw i8, ptr %45, i64 28
  %48 = load i32, ptr %47, align 4
  %49 = or i32 %48, 2
  store i32 %49, ptr %47, align 4
  br label %proto_item_set_generated.exit

proto_item_set_generated.exit:                    ; preds = %46, %43, %38, %6
  ret i32 %26
}